; Function Attrs: nounwind uwtable
define internal noundef i32 @H5C__epoch_marker_verify_chksum(ptr readnone captures(none) %0, i64 %1, ptr readnone captures(none) %2) #0 {
  %4 = load i8, ptr @H5C_init_g, align 1, !tbaa !3, !range !7, !noundef !8
  %5 = trunc nuw i8 %4 to i1
  %6 = load i8, ptr @H5_libterm_g, align 1, !range !7
  %7 = trunc nuw i8 %6 to i1
  %8 = xor i1 %7, true
  %9 = select i1 %5, i1 true, i1 %8
  br i1 %9, label %10, label %14, !prof !9

10:                                               ; preds = %3
  %11 = load i64, ptr @H5E_CACHE_g, align 8, !tbaa !10
  %12 = load i64, ptr @H5E_SYSTEM_g, align 8, !tbaa !10
  %13 = tail call i32 (ptr, ptr, i32, i64, i64, ptr, ...) @H5E_printf_stack(ptr noundef nonnull @.str.1, ptr noundef nonnull @__func__.H5C__epoch_marker_verify_chksum, i32 noundef 137, i64 noundef %11, i64 noundef %12, ptr noundef nonnull @.str.2) #2
  br label %14

14:                                               ; preds = %10, %3
  ret i32 0
}